target datalayout = "e-m:e-p270:32:32-p271:32:32-p272:64:64-i64:64-i128:128-f80:128-n8:16:32:64-S128"
target triple = "x86_64-pc-linux-gnu"

%struct.DCACoreDecoder = type { ptr, %struct.GetBitContext, %struct.GetBitContext, i32, i32, i32, i32, i32, i32, i32, i32, i32, i32, i32, i32, i32, i32, i32, i32, i32, i32, i32, i32, i32, i32, [7 x i8], [7 x i8], [7 x i8], [7 x i8], [7 x i8], [7 x i8], [7 x [10 x i8]], [7 x [10 x i32]], [16 x i8], [7 x [64 x i8]], [7 x [64 x i16]], [7 x [64 x i8]], [16 x [7 x [32 x i8]]], [7 x [32 x [2 x i32]]], [7 x i8], [7 x [64 x i32]], i32, i32, [24 x i32], i32, i32, i32, i32, i32, i32, i32, i32, [2 x i32], [12 x i32], i32, i32, i32, i32, i32, i32, i32, i32, i32, ptr, [7 x [64 x ptr]], i32, ptr, [7 x [32 x ptr]], ptr, [8 x i8], [7 x %struct.DCADSPData], ptr, %struct.DCADCTContext, [2 x ptr], [2 x ptr], %struct.SynthFilterContext, ptr, ptr, i32, ptr, [32 x ptr], i32, float, [32 x i32], i32, i32, i32, i32 }
%struct.GetBitContext = type { ptr, ptr, i32, i32, i32 }
%struct.DCADSPData = type { %union.anon, i32, [12 x i8] }
%union.anon = type { %struct.anon }
%struct.anon = type { [1024 x float], [64 x float] }
%struct.DCADCTContext = type { [2 x ptr] }
%struct.SynthFilterContext = type { ptr, ptr, ptr, ptr }

; Function Attrs: nounwind uwtable
define internal void @erase_dsp_history(ptr noundef %0) #0 {
  %2 = alloca ptr, align 8
  store ptr %0, ptr %2, align 8, !tbaa !4
  %3 = load ptr, ptr %2, align 8, !tbaa !4
  %4 = getelementptr inbounds nuw %struct.DCACoreDecoder, ptr %3, i32 0, i32 70
  %5 = getelementptr inbounds [7 x %struct.DCADSPData], ptr %4, i64 0, i64 0
  call void @llvm.memset.p0.i64(ptr align 16 %5, i8 0, i64 30576, i1 false)
  %6 = load ptr, ptr %2, align 8, !tbaa !4
  %7 = getelementptr inbounds nuw %struct.DCACoreDecoder, ptr %6, i32 0, i32 81
  store i32 0, ptr %7, align 8, !tbaa !214
  %8 = load ptr, ptr %2, align 8, !tbaa !4
  %9 = getelementptr inbounds nuw %struct.DCACoreDecoder, ptr %8, i32 0, i32 82
  store float 0.000000e+00, ptr %9, align 4, !tbaa !215
  ret void
}

; Function Attrs: nounwind uwtable
define internal void @erase_x96_adpcm_history(ptr noundef %0) #0 {
  %2 = alloca ptr, align 8
  %3 = alloca i32, align 4
  %4 = alloca i32, align 4
  store ptr %0, ptr %2, align 8, !tbaa !4
  call void @llvm.lifetime.start.p0(i64 4, ptr %3) #11
  call void @llvm.lifetime.start.p0(i64 4, ptr %4) #11
  store i32 0, ptr %3, align 4, !tbaa !11
  br label %5

5:                                                ; preds = %41, %1
  %6 = load i32, ptr %3, align 4, !tbaa !11
  %7 = icmp slt i32 %6, 7
  br i1 %7, label %8, label %44

8:                                                ; preds = %5
  store i32 0, ptr %4, align 4, !tbaa !11
  br label %9

9:                                                ; preds = %37, %8
  %10 = load i32, ptr %4, align 4, !tbaa !11
  %11 = icmp slt i32 %10, 64
  br i1 %11, label %12, label %40

12:                                               ; preds = %9
  br label %13

13:                                               ; preds = %12
  %14 = load ptr, ptr %2, align 8, !tbaa !4
  %15 = getelementptr inbounds nuw %struct.DCACoreDecoder, ptr %14, i32 0, i32 64
  %16 = load i32, ptr %3, align 4, !tbaa !11
  %17 = sext i32 %16 to i64
  %18 = getelementptr inbounds [7 x [64 x ptr]], ptr %15, i64 0, i64 %17
  %19 = load i32, ptr %4, align 4, !tbaa !11
  %20 = sext i32 %19 to i64
  %21 = getelementptr inbounds [64 x ptr], ptr %18, i64 0, i64 %20
  %22 = load ptr, ptr %21, align 8, !tbaa !90
  %23 = getelementptr inbounds i32, ptr %22, i64 -4
  store i64 0, ptr %23, align 8, !tbaa !81
  %24 = load ptr, ptr %2, align 8, !tbaa !4
  %25 = getelementptr inbounds nuw %struct.DCACoreDecoder, ptr %24, i32 0, i32 64
  %26 = load i32, ptr %3, align 4, !tbaa !11
  %27 = sext i32 %26 to i64
  %28 = getelementptr inbounds [7 x [64 x ptr]], ptr %25, i64 0, i64 %27
  %29 = load i32, ptr %4, align 4, !tbaa !11
  %30 = sext i32 %29 to i64
  %31 = getelementptr inbounds [64 x ptr], ptr %28, i64 0, i64 %30
  %32 = load ptr, ptr %31, align 8, !tbaa !90
  %33 = getelementptr inbounds i32, ptr %32, i64 -4
  %34 = getelementptr inbounds i8, ptr %33, i64 8
  store i64 0, ptr %34, align 8, !tbaa !81
  br label %35

35:                                               ; preds = %13
  br label %36

36:                                               ; preds = %35
  br label %37

37:                                               ; preds = %36
  %38 = load i32, ptr %4, align 4, !tbaa !11
  %39 = add nsw i32 %38, 1
  store i32 %39, ptr %4, align 4, !tbaa !11
  br label %9, !llvm.loop !212

40:                                               ; preds = %9
  br label %41

41:                                               ; preds = %40
  %42 = load i32, ptr %3, align 4, !tbaa !11
  %43 = add nsw i32 %42, 1
  store i32 %43, ptr %3, align 4, !tbaa !11
  br label %5, !llvm.loop !213

44:                                               ; preds = %5
  call void @llvm.lifetime.end.p0(i64 4, ptr %4) #11
  call void @llvm.lifetime.end.p0(i64 4, ptr %3) #11
  ret void
}

; Function Attrs: nounwind uwtable
define internal void @erase_adpcm_history(ptr noundef %0) #0 {
  %2 = alloca ptr, align 8
  %3 = alloca i32, align 4
  %4 = alloca i32, align 4
  store ptr %0, ptr %2, align 8, !tbaa !4
  call void @llvm.lifetime.start.p0(i64 4, ptr %3) #11
  call void @llvm.lifetime.start.p0(i64 4, ptr %4) #11
  store i32 0, ptr %3, align 4, !tbaa !11
  br label %5

5:                                                ; preds = %41, %1
  %6 = load i32, ptr %3, align 4, !tbaa !11
  %7 = icmp slt i32 %6, 7
  br i1 %7, label %8, label %44

8:                                                ; preds = %5
  store i32 0, ptr %4, align 4, !tbaa !11
  br label %9

9:                                                ; preds = %37, %8
  %10 = load i32, ptr %4, align 4, !tbaa !11
  %11 = icmp slt i32 %10, 32
  br i1 %11, label %12, label %40

12:                                               ; preds = %9
  br label %13

13:                                               ; preds = %12
  %14 = load ptr, ptr %2, align 8, !tbaa !4
  %15 = getelementptr inbounds nuw %struct.DCACoreDecoder, ptr %14, i32 0, i32 67
  %16 = load i32, ptr %3, align 4, !tbaa !11
  %17 = sext i32 %16 to i64
  %18 = getelementptr inbounds [7 x [32 x ptr]], ptr %15, i64 0, i64 %17
  %19 = load i32, ptr %4, align 4, !tbaa !11
  %20 = sext i32 %19 to i64
  %21 = getelementptr inbounds [32 x ptr], ptr %18, i64 0, i64 %20
  %22 = load ptr, ptr %21, align 8, !tbaa !90
  %23 = getelementptr inbounds i32, ptr %22, i64 -4
  store i64 0, ptr %23, align 8, !tbaa !81
  %24 = load ptr, ptr %2, align 8, !tbaa !4
  %25 = getelementptr inbounds nuw %struct.DCACoreDecoder, ptr %24, i32 0, i32 67
  %26 = load i32, ptr %3, align 4, !tbaa !11
  %27 = sext i32 %26 to i64
  %28 = getelementptr inbounds [7 x [32 x ptr]], ptr %25, i64 0, i64 %27
  %29 = load i32, ptr %4, align 4, !tbaa !11
  %30 = sext i32 %29 to i64
  %31 = getelementptr inbounds [32 x ptr], ptr %28, i64 0, i64 %30
  %32 = load ptr, ptr %31, align 8, !tbaa !90
  %33 = getelementptr inbounds i32, ptr %32, i64 -4
  %34 = getelementptr inbounds i8, ptr %33, i64 8
  store i64 0, ptr %34, align 8, !tbaa !81
  br label %35

35:                                               ; preds = %13
  br label %36

36:                                               ; preds = %35
  br label %37

37:                                               ; preds = %36
  %38 = load i32, ptr %4, align 4, !tbaa !11
  %39 = add nsw i32 %38, 1
  store i32 %39, ptr %4, align 4, !tbaa !11
  br label %9, !llvm.loop !210

40:                                               ; preds = %9
  br label %41

41:                                               ; preds = %40
  %42 = load i32, ptr %3, align 4, !tbaa !11
  %43 = add nsw i32 %42, 1
  store i32 %43, ptr %3, align 4, !tbaa !11
  br label %5, !llvm.loop !211

44:                                               ; preds = %5
  call void @llvm.lifetime.end.p0(i64 4, ptr %4) #11
  call void @llvm.lifetime.end.p0(i64 4, ptr %3) #11
  ret void
}

; Function Attrs: cold nounwind optsize uwtable
define void @ff_dca_core_flush(ptr noundef %0) #6 {
  %2 = alloca ptr, align 8
  store ptr %0, ptr %2, align 8, !tbaa !4
  %3 = load ptr, ptr %2, align 8, !tbaa !4
  %4 = getelementptr inbounds nuw %struct.DCACoreDecoder, ptr %3, i32 0, i32 66
  %5 = load ptr, ptr %4, align 8, !tbaa !89
  %6 = icmp ne ptr %5, null
  br i1 %6, label %7, label %12

7:                                                ; preds = %1
  %8 = load ptr, ptr %2, align 8, !tbaa !4
  call void @erase_adpcm_history(ptr noundef %8)
  %9 = load ptr, ptr %2, align 8, !tbaa !4
  %10 = getelementptr inbounds nuw %struct.DCACoreDecoder, ptr %9, i32 0, i32 68
  %11 = load ptr, ptr %10, align 16, !tbaa !94
  call void @llvm.memset.p0.i64(ptr align 4 %11, i8 0, i64 32, i1 false)
  br label %12

12:                                               ; preds = %7, %1
  %13 = load ptr, ptr %2, align 8, !tbaa !4
  %14 = getelementptr inbounds nuw %struct.DCACoreDecoder, ptr %13, i32 0, i32 63
  %15 = load ptr, ptr %14, align 8, !tbaa !209
  %16 = icmp ne ptr %15, null
  br i1 %16, label %17, label %19

17:                                               ; preds = %12
  %18 = load ptr, ptr %2, align 8, !tbaa !4
  call void @erase_x96_adpcm_history(ptr noundef %18)
  br label %19

19:                                               ; preds = %17, %12
  %20 = load ptr, ptr %2, align 8, !tbaa !4
  call void @erase_dsp_history(ptr noundef %20)
  ret void
}