; Function Attrs: cold nofree norecurse nosync nounwind optsize memory(write, argmem: readwrite, inaccessiblemem: none) uwtable
define void @ff_dca_core_flush(ptr noundef captures(none) %0) local_unnamed_addr #4 {
  %2 = getelementptr inbounds nuw i8, ptr %0, i64 13368
  %3 = load ptr, ptr %2, align 8, !tbaa !74
  %.not = icmp eq ptr %3, null
  br i1 %.not, label %15, label %4

4:                                                ; preds = %1
  %5 = getelementptr inbounds nuw i8, ptr %0, i64 13376
  br label %.preheader.i

.preheader.i:                                     ; preds = %12, %4
  %indvars.iv13.i = phi i64 [ 0, %4 ], [ %indvars.iv.next14.i, %12 ]
  br label %6

6:                                                ; preds = %6, %.preheader.i
  %indvars.iv.i = phi i64 [ 0, %.preheader.i ], [ %indvars.iv.next.i, %6 ]
  %7 = getelementptr inbounds nuw [7 x [32 x ptr]], ptr %5, i64 0, i64 %indvars.iv13.i, i64 %indvars.iv.i
  %8 = load ptr, ptr %7, align 8, !tbaa !75
  %9 = getelementptr inbounds i8, ptr %8, i64 -16
  store i64 0, ptr %9, align 8, !tbaa !66
  %10 = load ptr, ptr %7, align 8, !tbaa !75
  %11 = getelementptr inbounds i8, ptr %10, i64 -8
  store i64 0, ptr %11, align 8, !tbaa !66
  %indvars.iv.next.i = add nuw nsw i64 %indvars.iv.i, 1
  %exitcond.not.i = icmp eq i64 %indvars.iv.next.i, 32
  br i1 %exitcond.not.i, label %12, label %6, !llvm.loop !80

12:                                               ; preds = %6
  %indvars.iv.next14.i = add nuw nsw i64 %indvars.iv13.i, 1
  %exitcond16.not.i = icmp eq i64 %indvars.iv.next14.i, 7
  br i1 %exitcond16.not.i, label %erase_adpcm_history.exit, label %.preheader.i, !llvm.loop !81

erase_adpcm_history.exit:                         ; preds = %12
  %13 = getelementptr inbounds nuw i8, ptr %0, i64 15168
  %14 = load ptr, ptr %13, align 16, !tbaa !79
  tail call void @llvm.memset.p0.i64(ptr noundef nonnull align 4 dereferenceable(32) %14, i8 0, i64 32, i1 false)
  br label %15

15:                                               ; preds = %erase_adpcm_history.exit, %1
  %16 = getelementptr inbounds nuw i8, ptr %0, i64 9768
  %17 = load ptr, ptr %16, align 8, !tbaa !210
  %.not6 = icmp eq ptr %17, null
  br i1 %.not6, label %erase_x96_adpcm_history.exit, label %18

18:                                               ; preds = %15
  %19 = getelementptr inbounds nuw i8, ptr %0, i64 9776
  br label %.preheader.i7

.preheader.i7:                                    ; preds = %26, %18
  %indvars.iv13.i8 = phi i64 [ 0, %18 ], [ %indvars.iv.next14.i12, %26 ]
  br label %20

20:                                               ; preds = %20, %.preheader.i7
  %indvars.iv.i9 = phi i64 [ 0, %.preheader.i7 ], [ %indvars.iv.next.i10, %20 ]
  %21 = getelementptr inbounds nuw [7 x [64 x ptr]], ptr %19, i64 0, i64 %indvars.iv13.i8, i64 %indvars.iv.i9
  %22 = load ptr, ptr %21, align 8, !tbaa !75
  %23 = getelementptr inbounds i8, ptr %22, i64 -16
  store i64 0, ptr %23, align 8, !tbaa !66
  %24 = load ptr, ptr %21, align 8, !tbaa !75
  %25 = getelementptr inbounds i8, ptr %24, i64 -8
  store i64 0, ptr %25, align 8, !tbaa !66
  %indvars.iv.next.i10 = add nuw nsw i64 %indvars.iv.i9, 1
  %exitcond.not.i11 = icmp eq i64 %indvars.iv.next.i10, 64
  br i1 %exitcond.not.i11, label %26, label %20, !llvm.loop !213

26:                                               ; preds = %20
  %indvars.iv.next14.i12 = add nuw nsw i64 %indvars.iv13.i8, 1
  %exitcond16.not.i13 = icmp eq i64 %indvars.iv.next14.i12, 7
  br i1 %exitcond16.not.i13, label %erase_x96_adpcm_history.exit, label %.preheader.i7, !llvm.loop !214

erase_x96_adpcm_history.exit:                     ; preds = %26, %15
  %27 = getelementptr inbounds nuw i8, ptr %0, i64 15184
  tail call void @llvm.memset.p0.i64(ptr noundef nonnull align 16 dereferenceable(30576) %27, i8 0, i64 30576, i1 false)
  %28 = getelementptr inbounds nuw i8, ptr %0, i64 46136
  store i32 0, ptr %28, align 8, !tbaa !222
  %29 = getelementptr inbounds nuw i8, ptr %0, i64 46140
  store float 0.000000e+00, ptr %29, align 4, !tbaa !223
  ret void
}